; Function Attrs: mustprogress uwtable
define { <2 x float>, float } @_ZNK32pxrInternal_v0_24__pxrReserved__10GfMatrix3f17DecomposeRotationERKNS_7GfVec3fES3_S3_(ptr nocapture noundef nonnull readonly align 4 dereferenceable(36) %0, ptr nocapture noundef nonnull readonly align 4 dereferenceable(12) %1, ptr nocapture noundef nonnull readonly align 4 dereferenceable(12) %2, ptr nocapture noundef nonnull readonly align 4 dereferenceable(12) %3) local_unnamed_addr #0 align 2 {
  %5 = alloca %"class.pxrInternal_v0_24__pxrReserved__::GfQuatd", align 8
  %6 = alloca %"class.pxrInternal_v0_24__pxrReserved__::GfQuaternion", align 8
  %7 = alloca %"class.pxrInternal_v0_24__pxrReserved__::GfVec3d", align 8
  %8 = alloca %"class.pxrInternal_v0_24__pxrReserved__::GfRotation", align 8
  %9 = alloca %"class.pxrInternal_v0_24__pxrReserved__::GfVec3d", align 8
  %10 = alloca %"class.pxrInternal_v0_24__pxrReserved__::GfVec3d", align 8
  %11 = alloca %"class.pxrInternal_v0_24__pxrReserved__::GfVec3d", align 8
  call void @llvm.lifetime.start.p0(i64 32, ptr nonnull %6)
  call void @_ZNK32pxrInternal_v0_24__pxrReserved__10GfMatrix3f25ExtractRotationQuaternionEv(ptr dead_on_unwind nonnull writable sret(%"class.pxrInternal_v0_24__pxrReserved__::GfQuaternion") align 8 %6, ptr noundef nonnull readonly align 4 dereferenceable(36) %0), !noalias !15
  call void @llvm.lifetime.start.p0(i64 32, ptr nonnull %5), !noalias !15
  %12 = load double, ptr %6, align 8, !noalias !15
  %13 = getelementptr inbounds nuw i8, ptr %6, i64 8
  call void @llvm.memcpy.p0.p0.i64(ptr noundef nonnull align 8 dereferenceable(24) %5, ptr noundef nonnull align 8 dereferenceable(24) %13, i64 24, i1 false), !noalias !15
  %14 = getelementptr inbounds nuw i8, ptr %5, i64 24
  store double %12, ptr %14, align 8, !noalias !15
  %15 = call noundef nonnull align 8 dereferenceable(32) ptr @_ZN32pxrInternal_v0_24__pxrReserved__10GfRotation7SetQuatERKNS_7GfQuatdE(ptr noundef nonnull align 8 dereferenceable(32) %8, ptr noundef nonnull align 8 dereferenceable(32) %5)
  call void @llvm.lifetime.end.p0(i64 32, ptr nonnull %5), !noalias !15
  call void @llvm.lifetime.end.p0(i64 32, ptr nonnull %6)
  %16 = load float, ptr %1, align 4
  %17 = fpext float %16 to double
  store double %17, ptr %9, align 8
  %18 = getelementptr inbounds i8, ptr %1, i64 4
  %19 = load float, ptr %18, align 4
  %20 = fpext float %19 to double
  %21 = getelementptr inbounds i8, ptr %9, i64 8
  store double %20, ptr %21, align 8
  %22 = getelementptr inbounds i8, ptr %1, i64 8
  %23 = load float, ptr %22, align 4
  %24 = fpext float %23 to double
  %25 = getelementptr inbounds i8, ptr %9, i64 16
  store double %24, ptr %25, align 8
  %26 = load float, ptr %2, align 4
  %27 = fpext float %26 to double
  store double %27, ptr %10, align 8
  %28 = getelementptr inbounds i8, ptr %2, i64 4
  %29 = load float, ptr %28, align 4
  %30 = fpext float %29 to double
  %31 = getelementptr inbounds i8, ptr %10, i64 8
  store double %30, ptr %31, align 8
  %32 = getelementptr inbounds i8, ptr %2, i64 8
  %33 = load float, ptr %32, align 4
  %34 = fpext float %33 to double
  %35 = getelementptr inbounds i8, ptr %10, i64 16
  store double %34, ptr %35, align 8
  %36 = load float, ptr %3, align 4
  %37 = fpext float %36 to double
  store double %37, ptr %11, align 8
  %38 = getelementptr inbounds i8, ptr %3, i64 4
  %39 = load float, ptr %38, align 4
  %40 = fpext float %39 to double
  %41 = getelementptr inbounds i8, ptr %11, i64 8
  store double %40, ptr %41, align 8
  %42 = getelementptr inbounds i8, ptr %3, i64 8
  %43 = load float, ptr %42, align 4
  %44 = fpext float %43 to double
  %45 = getelementptr inbounds i8, ptr %11, i64 16
  store double %44, ptr %45, align 8
  call void @_ZNK32pxrInternal_v0_24__pxrReserved__10GfRotation9DecomposeERKNS_7GfVec3dES3_S3_(ptr dead_on_unwind nonnull writable sret(%"class.pxrInternal_v0_24__pxrReserved__::GfVec3d") align 8 %7, ptr noundef nonnull align 8 dereferenceable(32) %8, ptr noundef nonnull align 8 dereferenceable(24) %9, ptr noundef nonnull align 8 dereferenceable(24) %10, ptr noundef nonnull align 8 dereferenceable(24) %11)
  %46 = load double, ptr %7, align 8
  %47 = fptrunc double %46 to float
  %.sroa.0.0.vec.insert = insertelement <2 x float> poison, float %47, i64 0
  %48 = getelementptr inbounds i8, ptr %7, i64 8
  %49 = load double, ptr %48, align 8
  %50 = fptrunc double %49 to float
  %.sroa.0.4.vec.insert = insertelement <2 x float> %.sroa.0.0.vec.insert, float %50, i64 1
  %51 = getelementptr inbounds i8, ptr %7, i64 16
  %52 = load double, ptr %51, align 8
  %53 = fptrunc double %52 to float
  %.fca.0.insert = insertvalue { <2 x float>, float } poison, <2 x float> %.sroa.0.4.vec.insert, 0
  %.fca.1.insert = insertvalue { <2 x float>, float } %.fca.0.insert, float %53, 1
  ret { <2 x float>, float } %.fca.1.insert
}